target datalayout = "e-m:e-p270:32:32-p271:32:32-p272:64:64-i64:64-i128:128-f80:128-n8:16:32:64-S128"
target triple = "x86_64-pc-linux-gnu"

%struct.VLCElem = type { %union.anon.2 }
%union.anon.2 = type { %struct.anon }
%struct.anon = type { i16, i16 }
%struct.MpegEncContext = type { ptr, i32, i32, i32, [12 x i32], i32, %struct.ScanTable, %struct.ScanTable, [64 x i8], [64 x i8], ptr, ptr, i32, i32, i32, i32, i32, i32, i32, i32, i32, i32, i32, i32, i32, i32, i32, i32, i32, i32, i32, i32, i64, i64, ptr, %struct.BufferPoolContext, i32, i32, %union.anon.0, i32, %struct.MPVWorkPicture, %struct.MPVWorkPicture, %struct.MPVWorkPicture, i32, [3 x i32], ptr, [3 x ptr], ptr, ptr, ptr, ptr, ptr, ptr, [3 x ptr], i32, ptr, ptr, ptr, ptr, %struct.ScratchpadContext, i32, i32, i32, i32, i32, i32, %struct.BlockDSPContext, %struct.H264ChromaContext, %struct.HpelDSPContext, %struct.IDCTDSPContext, %struct.QpelDSPContext, %struct.VideoDSPContext, %struct.H263DSPContext, ptr, [2 x [2 x ptr]], i32, i32, [2 x [4 x [2 x i32]]], [2 x [2 x i32]], [2 x [2 x [2 x i32]]], [2 x [64 x i16]], i32, i32, i32, i32, i32, [6 x i32], [6 x i32], [3 x ptr], ptr, [64 x i16], [64 x i16], [64 x i16], [64 x i16], i32, i32, %struct.GetBitContext, i32, i32, i32, i32, i32, i32, i32, i32, i32, i32, i32, i32, i32, i32, i32, i64, i64, i16, i16, i16, i16, i32, i32, i32, i32, i32, i32, i32, i32, i32, [3 x i32], i32, i32, i32, i32, i32, i32, %struct.GetBitContext, i32, [2 x [2 x i32]], i32, i32, i32, i32, i32, i32, i32, i32, i32, i32, i32, i32, i32, i32, [2 x i32], i32, i32, ptr, ptr, ptr, ptr, ptr, i32, i32, %struct.ERContext }
%struct.ScanTable = type { ptr, [64 x i8], [64 x i8] }
%struct.BufferPoolContext = type { ptr, ptr, ptr, ptr, ptr, i32, i32, i32 }
%union.anon.0 = type { [32 x ptr] }
%struct.MPVWorkPicture = type { [3 x ptr], [3 x i64], ptr, ptr, [2 x ptr], ptr, ptr, [2 x ptr], i32 }
%struct.ScratchpadContext = type { ptr, ptr, %union.anon.1, i32 }
%union.anon.1 = type { ptr }
%struct.BlockDSPContext = type { ptr, ptr, [2 x ptr] }
%struct.H264ChromaContext = type { [4 x ptr], [4 x ptr] }
%struct.HpelDSPContext = type { [4 x [4 x ptr]], [4 x [4 x ptr]], [4 x [4 x ptr]], [4 x ptr] }
%struct.IDCTDSPContext = type { ptr, ptr, ptr, ptr, ptr, ptr, [64 x i8], i32, i32 }
%struct.QpelDSPContext = type { [2 x [16 x ptr]], [2 x [16 x ptr]], [2 x [16 x ptr]] }
%struct.VideoDSPContext = type { ptr, ptr }
%struct.H263DSPContext = type { ptr, ptr }
%struct.GetBitContext = type { ptr, ptr, i32, i32, i32 }
%struct.ERContext = type { ptr, ptr, i32, ptr, i32, i32, i32, i64, i64, i32, i32, ptr, ptr, [3 x ptr], ptr, ptr, [2 x [4 x [2 x i32]]], %struct.ERPicture, %struct.ERPicture, %struct.ERPicture, [2 x ptr], [2 x ptr], i16, i16, i32, i32, ptr, ptr }
%struct.ERPicture = type { ptr, ptr, ptr, [2 x ptr], [2 x ptr], ptr, i32 }
%struct.MSMP4DecContext = type { %struct.MpegEncContext, i32, i32, i32, i32, i32, i32, i32, i32, i32 }

@mv_tables = internal global [2 x ptr] zeroinitializer, align 16

; Function Attrs: alwaysinline nounwind willreturn memory(none) uwtable
define internal i32 @av_bswap32(i32 noundef %0) #5 {
  %2 = alloca i32, align 4
  store i32 %0, ptr %2, align 4, !tbaa !33
  %3 = load i32, ptr %2, align 4, !tbaa !33
  %4 = shl i32 %3, 8
  %5 = and i32 %4, 65280
  %6 = load i32, ptr %2, align 4, !tbaa !33
  %7 = lshr i32 %6, 8
  %8 = and i32 %7, 255
  %9 = or i32 %5, %8
  %10 = shl i32 %9, 16
  %11 = load i32, ptr %2, align 4, !tbaa !33
  %12 = lshr i32 %11, 16
  %13 = shl i32 %12, 8
  %14 = and i32 %13, 65280
  %15 = load i32, ptr %2, align 4, !tbaa !33
  %16 = lshr i32 %15, 16
  %17 = lshr i32 %16, 8
  %18 = and i32 %17, 255
  %19 = or i32 %14, %18
  %20 = or i32 %10, %19
  ret i32 %20
}

; Function Attrs: inlinehint nounwind uwtable
define internal i32 @get_bits(ptr noundef %0, i32 noundef %1) #4 {
  %3 = alloca ptr, align 8
  %4 = alloca i32, align 4
  %5 = alloca i32, align 4
  %6 = alloca i32, align 4
  %7 = alloca i32, align 4
  %8 = alloca i32, align 4
  store ptr %0, ptr %3, align 8, !tbaa !108
  store i32 %1, ptr %4, align 4, !tbaa !33
  call void @llvm.lifetime.start.p0(i64 4, ptr %5) #8
  call void @llvm.lifetime.start.p0(i64 4, ptr %6) #8
  %9 = load ptr, ptr %3, align 8, !tbaa !108
  %10 = getelementptr inbounds nuw %struct.GetBitContext, ptr %9, i32 0, i32 2
  %11 = load i32, ptr %10, align 8, !tbaa !111
  store i32 %11, ptr %6, align 4, !tbaa !33
  call void @llvm.lifetime.start.p0(i64 4, ptr %7) #8
  call void @llvm.lifetime.start.p0(i64 4, ptr %8) #8
  %12 = load ptr, ptr %3, align 8, !tbaa !108
  %13 = getelementptr inbounds nuw %struct.GetBitContext, ptr %12, i32 0, i32 4
  %14 = load i32, ptr %13, align 8, !tbaa !112
  store i32 %14, ptr %8, align 4, !tbaa !33
  %15 = load ptr, ptr %3, align 8, !tbaa !108
  %16 = getelementptr inbounds nuw %struct.GetBitContext, ptr %15, i32 0, i32 0
  %17 = load ptr, ptr %16, align 8, !tbaa !113
  %18 = load i32, ptr %6, align 4, !tbaa !33
  %19 = lshr i32 %18, 3
  %20 = zext i32 %19 to i64
  %21 = getelementptr inbounds nuw i8, ptr %17, i64 %20
  %22 = load i32, ptr %21, align 1, !tbaa !85
  %23 = call i32 @av_bswap32(i32 noundef %22) #9
  %24 = load i32, ptr %6, align 4, !tbaa !33
  %25 = and i32 %24, 7
  %26 = shl i32 %23, %25
  %27 = lshr i32 %26, 0
  store i32 %27, ptr %7, align 4, !tbaa !33
  %28 = load i32, ptr %7, align 4, !tbaa !33
  %29 = load i32, ptr %4, align 4, !tbaa !33
  %30 = sub nsw i32 32, %29
  %31 = lshr i32 %28, %30
  store i32 %31, ptr %5, align 4, !tbaa !33
  %32 = load i32, ptr %8, align 4, !tbaa !33
  %33 = load i32, ptr %6, align 4, !tbaa !33
  %34 = load i32, ptr %4, align 4, !tbaa !33
  %35 = add i32 %33, %34
  %36 = icmp ugt i32 %32, %35
  br i1 %36, label %37, label %41

37:                                               ; preds = %2
  %38 = load i32, ptr %6, align 4, !tbaa !33
  %39 = load i32, ptr %4, align 4, !tbaa !33
  %40 = add i32 %38, %39
  br label %43

41:                                               ; preds = %2
  %42 = load i32, ptr %8, align 4, !tbaa !33
  br label %43

43:                                               ; preds = %41, %37
  %44 = phi i32 [ %40, %37 ], [ %42, %41 ]
  store i32 %44, ptr %6, align 4, !tbaa !33
  %45 = load i32, ptr %6, align 4, !tbaa !33
  %46 = load ptr, ptr %3, align 8, !tbaa !108
  %47 = getelementptr inbounds nuw %struct.GetBitContext, ptr %46, i32 0, i32 2
  store i32 %45, ptr %47, align 8, !tbaa !111
  %48 = load i32, ptr %5, align 4, !tbaa !33
  call void @llvm.lifetime.end.p0(i64 4, ptr %8) #8
  call void @llvm.lifetime.end.p0(i64 4, ptr %7) #8
  call void @llvm.lifetime.end.p0(i64 4, ptr %6) #8
  call void @llvm.lifetime.end.p0(i64 4, ptr %5) #8
  ret i32 %48
}

; Function Attrs: alwaysinline nounwind uwtable
define internal i32 @get_vlc2(ptr noundef %0, ptr noundef %1, i32 noundef %2, i32 noundef %3) #6 {
  %5 = alloca ptr, align 8
  %6 = alloca ptr, align 8
  %7 = alloca i32, align 4
  %8 = alloca i32, align 4
  %9 = alloca i32, align 4
  %10 = alloca i32, align 4
  %11 = alloca i32, align 4
  %12 = alloca i32, align 4
  %13 = alloca i32, align 4
  %14 = alloca i32, align 4
  %15 = alloca i32, align 4
  store ptr %0, ptr %5, align 8, !tbaa !108
  store ptr %1, ptr %6, align 8, !tbaa !82
  store i32 %2, ptr %7, align 4, !tbaa !33
  store i32 %3, ptr %8, align 4, !tbaa !33
  call void @llvm.lifetime.start.p0(i64 4, ptr %9) #8
  call void @llvm.lifetime.start.p0(i64 4, ptr %10) #8
  %16 = load ptr, ptr %5, align 8, !tbaa !108
  %17 = getelementptr inbounds nuw %struct.GetBitContext, ptr %16, i32 0, i32 2
  %18 = load i32, ptr %17, align 8, !tbaa !111
  store i32 %18, ptr %10, align 4, !tbaa !33
  call void @llvm.lifetime.start.p0(i64 4, ptr %11) #8
  call void @llvm.lifetime.start.p0(i64 4, ptr %12) #8
  %19 = load ptr, ptr %5, align 8, !tbaa !108
  %20 = getelementptr inbounds nuw %struct.GetBitContext, ptr %19, i32 0, i32 4
  %21 = load i32, ptr %20, align 8, !tbaa !112
  store i32 %21, ptr %12, align 4, !tbaa !33
  %22 = load ptr, ptr %5, align 8, !tbaa !108
  %23 = getelementptr inbounds nuw %struct.GetBitContext, ptr %22, i32 0, i32 0
  %24 = load ptr, ptr %23, align 8, !tbaa !113
  %25 = load i32, ptr %10, align 4, !tbaa !33
  %26 = lshr i32 %25, 3
  %27 = zext i32 %26 to i64
  %28 = getelementptr inbounds nuw i8, ptr %24, i64 %27
  %29 = load i32, ptr %28, align 1, !tbaa !85
  %30 = call i32 @av_bswap32(i32 noundef %29) #9
  %31 = load i32, ptr %10, align 4, !tbaa !33
  %32 = and i32 %31, 7
  %33 = shl i32 %30, %32
  %34 = lshr i32 %33, 0
  store i32 %34, ptr %11, align 4, !tbaa !33
  br label %35

35:                                               ; preds = %4
  call void @llvm.lifetime.start.p0(i64 4, ptr %13) #8
  call void @llvm.lifetime.start.p0(i64 4, ptr %14) #8
  call void @llvm.lifetime.start.p0(i64 4, ptr %15) #8
  %36 = load i32, ptr %11, align 4, !tbaa !33
  %37 = load i32, ptr %7, align 4, !tbaa !33
  %38 = sub nsw i32 32, %37
  %39 = lshr i32 %36, %38
  store i32 %39, ptr %15, align 4, !tbaa !33
  %40 = load ptr, ptr %6, align 8, !tbaa !82
  %41 = load i32, ptr %15, align 4, !tbaa !33
  %42 = zext i32 %41 to i64
  %43 = getelementptr inbounds nuw %struct.VLCElem, ptr %40, i64 %42
  %44 = getelementptr inbounds nuw %struct.VLCElem, ptr %43, i32 0, i32 0
  %45 = getelementptr inbounds nuw %struct.anon, ptr %44, i32 0, i32 0
  %46 = load i16, ptr %45, align 2, !tbaa !85
  %47 = sext i16 %46 to i32
  store i32 %47, ptr %9, align 4, !tbaa !33
  %48 = load ptr, ptr %6, align 8, !tbaa !82
  %49 = load i32, ptr %15, align 4, !tbaa !33
  %50 = zext i32 %49 to i64
  %51 = getelementptr inbounds nuw %struct.VLCElem, ptr %48, i64 %50
  %52 = getelementptr inbounds nuw %struct.VLCElem, ptr %51, i32 0, i32 0
  %53 = getelementptr inbounds nuw %struct.anon, ptr %52, i32 0, i32 1
  %54 = load i16, ptr %53, align 2, !tbaa !85
  %55 = sext i16 %54 to i32
  store i32 %55, ptr %13, align 4, !tbaa !33
  %56 = load i32, ptr %8, align 4, !tbaa !33
  %57 = icmp sgt i32 %56, 1
  br i1 %57, label %58, label %169

58:                                               ; preds = %35
  %59 = load i32, ptr %13, align 4, !tbaa !33
  %60 = icmp slt i32 %59, 0
  br i1 %60, label %61, label %169

61:                                               ; preds = %58
  %62 = load i32, ptr %12, align 4, !tbaa !33
  %63 = load i32, ptr %10, align 4, !tbaa !33
  %64 = load i32, ptr %7, align 4, !tbaa !33
  %65 = add i32 %63, %64
  %66 = icmp ugt i32 %62, %65
  br i1 %66, label %67, label %71

67:                                               ; preds = %61
  %68 = load i32, ptr %10, align 4, !tbaa !33
  %69 = load i32, ptr %7, align 4, !tbaa !33
  %70 = add i32 %68, %69
  br label %73

71:                                               ; preds = %61
  %72 = load i32, ptr %12, align 4, !tbaa !33
  br label %73

73:                                               ; preds = %71, %67
  %74 = phi i32 [ %70, %67 ], [ %72, %71 ]
  store i32 %74, ptr %10, align 4, !tbaa !33
  %75 = load ptr, ptr %5, align 8, !tbaa !108
  %76 = getelementptr inbounds nuw %struct.GetBitContext, ptr %75, i32 0, i32 0
  %77 = load ptr, ptr %76, align 8, !tbaa !113
  %78 = load i32, ptr %10, align 4, !tbaa !33
  %79 = lshr i32 %78, 3
  %80 = zext i32 %79 to i64
  %81 = getelementptr inbounds nuw i8, ptr %77, i64 %80
  %82 = load i32, ptr %81, align 1, !tbaa !85
  %83 = call i32 @av_bswap32(i32 noundef %82) #9
  %84 = load i32, ptr %10, align 4, !tbaa !33
  %85 = and i32 %84, 7
  %86 = shl i32 %83, %85
  %87 = lshr i32 %86, 0
  store i32 %87, ptr %11, align 4, !tbaa !33
  %88 = load i32, ptr %13, align 4, !tbaa !33
  %89 = sub nsw i32 0, %88
  store i32 %89, ptr %14, align 4, !tbaa !33
  %90 = load i32, ptr %11, align 4, !tbaa !33
  %91 = load i32, ptr %14, align 4, !tbaa !33
  %92 = sub nsw i32 32, %91
  %93 = lshr i32 %90, %92
  %94 = load i32, ptr %9, align 4, !tbaa !33
  %95 = add i32 %93, %94
  store i32 %95, ptr %15, align 4, !tbaa !33
  %96 = load ptr, ptr %6, align 8, !tbaa !82
  %97 = load i32, ptr %15, align 4, !tbaa !33
  %98 = zext i32 %97 to i64
  %99 = getelementptr inbounds nuw %struct.VLCElem, ptr %96, i64 %98
  %100 = getelementptr inbounds nuw %struct.VLCElem, ptr %99, i32 0, i32 0
  %101 = getelementptr inbounds nuw %struct.anon, ptr %100, i32 0, i32 0
  %102 = load i16, ptr %101, align 2, !tbaa !85
  %103 = sext i16 %102 to i32
  store i32 %103, ptr %9, align 4, !tbaa !33
  %104 = load ptr, ptr %6, align 8, !tbaa !82
  %105 = load i32, ptr %15, align 4, !tbaa !33
  %106 = zext i32 %105 to i64
  %107 = getelementptr inbounds nuw %struct.VLCElem, ptr %104, i64 %106
  %108 = getelementptr inbounds nuw %struct.VLCElem, ptr %107, i32 0, i32 0
  %109 = getelementptr inbounds nuw %struct.anon, ptr %108, i32 0, i32 1
  %110 = load i16, ptr %109, align 2, !tbaa !85
  %111 = sext i16 %110 to i32
  store i32 %111, ptr %13, align 4, !tbaa !33
  %112 = load i32, ptr %8, align 4, !tbaa !33
  %113 = icmp sgt i32 %112, 2
  br i1 %113, label %114, label %168

114:                                              ; preds = %73
  %115 = load i32, ptr %13, align 4, !tbaa !33
  %116 = icmp slt i32 %115, 0
  br i1 %116, label %117, label %168

117:                                              ; preds = %114
  %118 = load i32, ptr %12, align 4, !tbaa !33
  %119 = load i32, ptr %10, align 4, !tbaa !33
  %120 = load i32, ptr %14, align 4, !tbaa !33
  %121 = add i32 %119, %120
  %122 = icmp ugt i32 %118, %121
  br i1 %122, label %123, label %127

123:                                              ; preds = %117
  %124 = load i32, ptr %10, align 4, !tbaa !33
  %125 = load i32, ptr %14, align 4, !tbaa !33
  %126 = add i32 %124, %125
  br label %129

127:                                              ; preds = %117
  %128 = load i32, ptr %12, align 4, !tbaa !33
  br label %129

129:                                              ; preds = %127, %123
  %130 = phi i32 [ %126, %123 ], [ %128, %127 ]
  store i32 %130, ptr %10, align 4, !tbaa !33
  %131 = load ptr, ptr %5, align 8, !tbaa !108
  %132 = getelementptr inbounds nuw %struct.GetBitContext, ptr %131, i32 0, i32 0
  %133 = load ptr, ptr %132, align 8, !tbaa !113
  %134 = load i32, ptr %10, align 4, !tbaa !33
  %135 = lshr i32 %134, 3
  %136 = zext i32 %135 to i64
  %137 = getelementptr inbounds nuw i8, ptr %133, i64 %136
  %138 = load i32, ptr %137, align 1, !tbaa !85
  %139 = call i32 @av_bswap32(i32 noundef %138) #9
  %140 = load i32, ptr %10, align 4, !tbaa !33
  %141 = and i32 %140, 7
  %142 = shl i32 %139, %141
  %143 = lshr i32 %142, 0
  store i32 %143, ptr %11, align 4, !tbaa !33
  %144 = load i32, ptr %13, align 4, !tbaa !33
  %145 = sub nsw i32 0, %144
  store i32 %145, ptr %14, align 4, !tbaa !33
  %146 = load i32, ptr %11, align 4, !tbaa !33
  %147 = load i32, ptr %14, align 4, !tbaa !33
  %148 = sub nsw i32 32, %147
  %149 = lshr i32 %146, %148
  %150 = load i32, ptr %9, align 4, !tbaa !33
  %151 = add i32 %149, %150
  store i32 %151, ptr %15, align 4, !tbaa !33
  %152 = load ptr, ptr %6, align 8, !tbaa !82
  %153 = load i32, ptr %15, align 4, !tbaa !33
  %154 = zext i32 %153 to i64
  %155 = getelementptr inbounds nuw %struct.VLCElem, ptr %152, i64 %154
  %156 = getelementptr inbounds nuw %struct.VLCElem, ptr %155, i32 0, i32 0
  %157 = getelementptr inbounds nuw %struct.anon, ptr %156, i32 0, i32 0
  %158 = load i16, ptr %157, align 2, !tbaa !85
  %159 = sext i16 %158 to i32
  store i32 %159, ptr %9, align 4, !tbaa !33
  %160 = load ptr, ptr %6, align 8, !tbaa !82
  %161 = load i32, ptr %15, align 4, !tbaa !33
  %162 = zext i32 %161 to i64
  %163 = getelementptr inbounds nuw %struct.VLCElem, ptr %160, i64 %162
  %164 = getelementptr inbounds nuw %struct.VLCElem, ptr %163, i32 0, i32 0
  %165 = getelementptr inbounds nuw %struct.anon, ptr %164, i32 0, i32 1
  %166 = load i16, ptr %165, align 2, !tbaa !85
  %167 = sext i16 %166 to i32
  store i32 %167, ptr %13, align 4, !tbaa !33
  br label %168

168:                                              ; preds = %129, %114, %73
  br label %169

169:                                              ; preds = %168, %58, %35
  br label %170

170:                                              ; preds = %169
  %171 = load i32, ptr %13, align 4, !tbaa !33
  %172 = load i32, ptr %11, align 4, !tbaa !33
  %173 = shl i32 %172, %171
  store i32 %173, ptr %11, align 4, !tbaa !33
  %174 = load i32, ptr %12, align 4, !tbaa !33
  %175 = load i32, ptr %10, align 4, !tbaa !33
  %176 = load i32, ptr %13, align 4, !tbaa !33
  %177 = add i32 %175, %176
  %178 = icmp ugt i32 %174, %177
  br i1 %178, label %179, label %183

179:                                              ; preds = %170
  %180 = load i32, ptr %10, align 4, !tbaa !33
  %181 = load i32, ptr %13, align 4, !tbaa !33
  %182 = add i32 %180, %181
  br label %185

183:                                              ; preds = %170
  %184 = load i32, ptr %12, align 4, !tbaa !33
  br label %185

185:                                              ; preds = %183, %179
  %186 = phi i32 [ %182, %179 ], [ %184, %183 ]
  store i32 %186, ptr %10, align 4, !tbaa !33
  br label %187

187:                                              ; preds = %185
  br label %188

188:                                              ; preds = %187
  call void @llvm.lifetime.end.p0(i64 4, ptr %15) #8
  call void @llvm.lifetime.end.p0(i64 4, ptr %14) #8
  call void @llvm.lifetime.end.p0(i64 4, ptr %13) #8
  br label %189

189:                                              ; preds = %188
  br label %190

190:                                              ; preds = %189
  %191 = load i32, ptr %10, align 4, !tbaa !33
  %192 = load ptr, ptr %5, align 8, !tbaa !108
  %193 = getelementptr inbounds nuw %struct.GetBitContext, ptr %192, i32 0, i32 2
  store i32 %191, ptr %193, align 8, !tbaa !111
  %194 = load i32, ptr %9, align 4, !tbaa !33
  call void @llvm.lifetime.end.p0(i64 4, ptr %12) #8
  call void @llvm.lifetime.end.p0(i64 4, ptr %11) #8
  call void @llvm.lifetime.end.p0(i64 4, ptr %10) #8
  call void @llvm.lifetime.end.p0(i64 4, ptr %9) #8
  ret i32 %194
}

; Function Attrs: nounwind uwtable
define void @ff_msmpeg4_decode_motion(ptr noundef %0, ptr noundef %1, ptr noundef %2) #3 {
  %4 = alloca ptr, align 8
  %5 = alloca ptr, align 8
  %6 = alloca ptr, align 8
  %7 = alloca ptr, align 8
  %8 = alloca ptr, align 8
  %9 = alloca i32, align 4
  %10 = alloca i32, align 4
  %11 = alloca i32, align 4
  store ptr %0, ptr %4, align 8, !tbaa !60
  store ptr %1, ptr %5, align 8, !tbaa !66
  store ptr %2, ptr %6, align 8, !tbaa !66
  call void @llvm.lifetime.start.p0(i64 8, ptr %7) #8
  %12 = load ptr, ptr %4, align 8, !tbaa !60
  %13 = getelementptr inbounds nuw %struct.MSMP4DecContext, ptr %12, i32 0, i32 2
  %14 = load i32, ptr %13, align 4, !tbaa !104
  %15 = sext i32 %14 to i64
  %16 = getelementptr inbounds [2 x ptr], ptr @mv_tables, i64 0, i64 %15
  %17 = load ptr, ptr %16, align 8, !tbaa !82
  store ptr %17, ptr %7, align 8, !tbaa !82
  call void @llvm.lifetime.start.p0(i64 8, ptr %8) #8
  %18 = load ptr, ptr %4, align 8, !tbaa !60
  %19 = getelementptr inbounds nuw %struct.MSMP4DecContext, ptr %18, i32 0, i32 0
  store ptr %19, ptr %8, align 8, !tbaa !29
  call void @llvm.lifetime.start.p0(i64 4, ptr %9) #8
  call void @llvm.lifetime.start.p0(i64 4, ptr %10) #8
  call void @llvm.lifetime.start.p0(i64 4, ptr %11) #8
  %20 = load ptr, ptr %8, align 8, !tbaa !29
  %21 = getelementptr inbounds nuw %struct.MpegEncContext, ptr %20, i32 0, i32 134
  %22 = load ptr, ptr %7, align 8, !tbaa !82
  %23 = call i32 @get_vlc2(ptr noundef %21, ptr noundef %22, i32 noundef 9, i32 noundef 2)
  store i32 %23, ptr %9, align 4, !tbaa !33
  %24 = load i32, ptr %9, align 4, !tbaa !33
  %25 = icmp ne i32 %24, 0
  br i1 %25, label %26, label %31

26:                                               ; preds = %3
  %27 = load i32, ptr %9, align 4, !tbaa !33
  %28 = ashr i32 %27, 8
  store i32 %28, ptr %10, align 4, !tbaa !33
  %29 = load i32, ptr %9, align 4, !tbaa !33
  %30 = and i32 %29, 255
  store i32 %30, ptr %11, align 4, !tbaa !33
  br label %38

31:                                               ; preds = %3
  %32 = load ptr, ptr %8, align 8, !tbaa !29
  %33 = getelementptr inbounds nuw %struct.MpegEncContext, ptr %32, i32 0, i32 134
  %34 = call i32 @get_bits(ptr noundef %33, i32 noundef 6)
  store i32 %34, ptr %10, align 4, !tbaa !33
  %35 = load ptr, ptr %8, align 8, !tbaa !29
  %36 = getelementptr inbounds nuw %struct.MpegEncContext, ptr %35, i32 0, i32 134
  %37 = call i32 @get_bits(ptr noundef %36, i32 noundef 6)
  store i32 %37, ptr %11, align 4, !tbaa !33
  br label %38

38:                                               ; preds = %31, %26
  %39 = load ptr, ptr %5, align 8, !tbaa !66
  %40 = load i32, ptr %39, align 4, !tbaa !33
  %41 = sub nsw i32 %40, 32
  %42 = load i32, ptr %10, align 4, !tbaa !33
  %43 = add nsw i32 %42, %41
  store i32 %43, ptr %10, align 4, !tbaa !33
  %44 = load ptr, ptr %6, align 8, !tbaa !66
  %45 = load i32, ptr %44, align 4, !tbaa !33
  %46 = sub nsw i32 %45, 32
  %47 = load i32, ptr %11, align 4, !tbaa !33
  %48 = add nsw i32 %47, %46
  store i32 %48, ptr %11, align 4, !tbaa !33
  %49 = load i32, ptr %10, align 4, !tbaa !33
  %50 = icmp sle i32 %49, -64
  br i1 %50, label %51, label %54

51:                                               ; preds = %38
  %52 = load i32, ptr %10, align 4, !tbaa !33
  %53 = add nsw i32 %52, 64
  store i32 %53, ptr %10, align 4, !tbaa !33
  br label %61

54:                                               ; preds = %38
  %55 = load i32, ptr %10, align 4, !tbaa !33
  %56 = icmp sge i32 %55, 64
  br i1 %56, label %57, label %60

57:                                               ; preds = %54
  %58 = load i32, ptr %10, align 4, !tbaa !33
  %59 = sub nsw i32 %58, 64
  store i32 %59, ptr %10, align 4, !tbaa !33
  br label %60

60:                                               ; preds = %57, %54
  br label %61

61:                                               ; preds = %60, %51
  %62 = load i32, ptr %11, align 4, !tbaa !33
  %63 = icmp sle i32 %62, -64
  br i1 %63, label %64, label %67

64:                                               ; preds = %61
  %65 = load i32, ptr %11, align 4, !tbaa !33
  %66 = add nsw i32 %65, 64
  store i32 %66, ptr %11, align 4, !tbaa !33
  br label %74

67:                                               ; preds = %61
  %68 = load i32, ptr %11, align 4, !tbaa !33
  %69 = icmp sge i32 %68, 64
  br i1 %69, label %70, label %73

70:                                               ; preds = %67
  %71 = load i32, ptr %11, align 4, !tbaa !33
  %72 = sub nsw i32 %71, 64
  store i32 %72, ptr %11, align 4, !tbaa !33
  br label %73

73:                                               ; preds = %70, %67
  br label %74

74:                                               ; preds = %73, %64
  %75 = load i32, ptr %10, align 4, !tbaa !33
  %76 = load ptr, ptr %5, align 8, !tbaa !66
  store i32 %75, ptr %76, align 4, !tbaa !33
  %77 = load i32, ptr %11, align 4, !tbaa !33
  %78 = load ptr, ptr %6, align 8, !tbaa !66
  store i32 %77, ptr %78, align 4, !tbaa !33
  call void @llvm.lifetime.end.p0(i64 4, ptr %11) #8
  call void @llvm.lifetime.end.p0(i64 4, ptr %10) #8
  call void @llvm.lifetime.end.p0(i64 4, ptr %9) #8
  call void @llvm.lifetime.end.p0(i64 8, ptr %8) #8
  call void @llvm.lifetime.end.p0(i64 8, ptr %7) #8
  ret void
}