; Function Attrs: mustprogress nofree norecurse nosync nounwind willreturn memory(read, argmem: readwrite, inaccessiblemem: none) uwtable
define void @ff_msmpeg4_decode_motion(ptr noundef captures(none) %0, ptr noundef captures(none) %1, ptr noundef captures(none) %2) local_unnamed_addr #5 {
  %4 = getelementptr inbounds nuw i8, ptr %0, i64 4812
  %5 = load i32, ptr %4, align 4, !tbaa !100
  %6 = sext i32 %5 to i64
  %7 = getelementptr inbounds [2 x ptr], ptr @mv_tables, i64 0, i64 %6
  %8 = load ptr, ptr %7, align 8, !tbaa !78
  %9 = getelementptr inbounds nuw i8, ptr %0, i64 4160
  %10 = getelementptr inbounds nuw i8, ptr %0, i64 4176
  %11 = load i32, ptr %10, align 8, !tbaa !62
  %12 = getelementptr inbounds nuw i8, ptr %0, i64 4184
  %13 = load i32, ptr %12, align 8, !tbaa !65
  %14 = load ptr, ptr %9, align 8, !tbaa !63
  %15 = lshr i32 %11, 3
  %16 = zext nneg i32 %15 to i64
  %17 = getelementptr inbounds nuw i8, ptr %14, i64 %16
  %18 = load i32, ptr %17, align 1, !tbaa !64
  %19 = tail call i32 @llvm.bswap.i32(i32 %18)
  %20 = and i32 %11, 7
  %21 = shl i32 %19, %20
  %22 = lshr i32 %21, 23
  %23 = zext nneg i32 %22 to i64
  %24 = getelementptr inbounds nuw %struct.VLCElem, ptr %8, i64 %23
  %25 = load i16, ptr %24, align 2, !tbaa !64
  %26 = sext i16 %25 to i32
  %27 = getelementptr inbounds nuw i8, ptr %24, i64 2
  %28 = load i16, ptr %27, align 2, !tbaa !64
  %29 = sext i16 %28 to i32
  %30 = icmp slt i16 %28, 0
  br i1 %30, label %31, label %get_vlc2.exit

31:                                               ; preds = %3
  %32 = add i32 %11, 9
  %33 = tail call i32 @llvm.umin.i32(i32 %13, i32 %32)
  %34 = lshr i32 %33, 3
  %35 = zext nneg i32 %34 to i64
  %36 = getelementptr inbounds nuw i8, ptr %14, i64 %35
  %37 = load i32, ptr %36, align 1, !tbaa !64
  %38 = tail call i32 @llvm.bswap.i32(i32 %37)
  %39 = and i32 %33, 7
  %40 = shl i32 %38, %39
  %41 = add nsw i32 %29, 32
  %42 = lshr i32 %40, %41
  %43 = add i32 %42, %26
  %44 = zext i32 %43 to i64
  %45 = getelementptr inbounds nuw %struct.VLCElem, ptr %8, i64 %44
  %46 = load i16, ptr %45, align 2, !tbaa !64
  %47 = sext i16 %46 to i32
  %48 = getelementptr inbounds nuw i8, ptr %45, i64 2
  %49 = load i16, ptr %48, align 2, !tbaa !64
  %50 = sext i16 %49 to i32
  br label %get_vlc2.exit

get_vlc2.exit:                                    ; preds = %3, %31
  %.064.i = phi i32 [ %33, %31 ], [ %11, %3 ]
  %.062.i = phi i32 [ %47, %31 ], [ %26, %3 ]
  %.0.i = phi i32 [ %50, %31 ], [ %29, %3 ]
  %51 = add i32 %.0.i, %.064.i
  %52 = tail call i32 @llvm.umin.i32(i32 %13, i32 %51)
  store i32 %52, ptr %10, align 8, !tbaa !62
  %.not = icmp eq i32 %.062.i, 0
  br i1 %.not, label %56, label %53

53:                                               ; preds = %get_vlc2.exit
  %54 = ashr i32 %.062.i, 8
  %55 = and i32 %.062.i, 255
  br label %77

56:                                               ; preds = %get_vlc2.exit
  %57 = lshr i32 %52, 3
  %58 = zext nneg i32 %57 to i64
  %59 = getelementptr inbounds nuw i8, ptr %14, i64 %58
  %60 = load i32, ptr %59, align 1, !tbaa !64
  %61 = tail call i32 @llvm.bswap.i32(i32 %60)
  %62 = and i32 %52, 7
  %63 = shl i32 %61, %62
  %64 = lshr i32 %63, 26
  %65 = add i32 %52, 6
  %66 = tail call i32 @llvm.umin.i32(i32 %13, i32 %65)
  store i32 %66, ptr %10, align 8, !tbaa !62
  %67 = lshr i32 %66, 3
  %68 = zext nneg i32 %67 to i64
  %69 = getelementptr inbounds nuw i8, ptr %14, i64 %68
  %70 = load i32, ptr %69, align 1, !tbaa !64
  %71 = tail call i32 @llvm.bswap.i32(i32 %70)
  %72 = and i32 %66, 7
  %73 = shl i32 %71, %72
  %74 = lshr i32 %73, 26
  %75 = add i32 %66, 6
  %76 = tail call i32 @llvm.umin.i32(i32 %13, i32 %75)
  store i32 %76, ptr %10, align 8, !tbaa !62
  br label %77

77:                                               ; preds = %56, %53
  %.024 = phi i32 [ %54, %53 ], [ %64, %56 ]
  %.0 = phi i32 [ %55, %53 ], [ %74, %56 ]
  %78 = load i32, ptr %1, align 4, !tbaa !67
  %79 = add nsw i32 %.024, -32
  %80 = add i32 %79, %78
  %81 = load i32, ptr %2, align 4, !tbaa !67
  %82 = add nsw i32 %.0, -32
  %83 = add i32 %82, %81
  %84 = icmp slt i32 %80, -63
  %85 = add nsw i32 %80, 64
  %86 = icmp sgt i32 %80, 63
  %87 = add nsw i32 %80, -64
  %spec.select = select i1 %86, i32 %87, i32 %80
  %.125 = select i1 %84, i32 %85, i32 %spec.select
  %88 = icmp slt i32 %83, -63
  %89 = add nsw i32 %83, 64
  %90 = icmp sgt i32 %83, 63
  %91 = add nsw i32 %83, -64
  %spec.select31 = select i1 %90, i32 %91, i32 %83
  %.1 = select i1 %88, i32 %89, i32 %spec.select31
  store i32 %.125, ptr %1, align 4, !tbaa !67
  store i32 %.1, ptr %2, align 4, !tbaa !67
  ret void
}